target datalayout = "e-m:e-p270:32:32-p271:32:32-p272:64:64-i64:64-i128:128-f80:128-n8:16:32:64-S128"
target triple = "x86_64-pc-linux-gnu"

%struct.gmx_ana_selvalue_t = type { i32, i32, %union.anon, i32 }
%union.anon = type { ptr }
%struct.gmx_ana_index_t = type { i32, ptr, i32 }
%struct.gmx_ana_selparam_t = type { ptr, %struct.gmx_ana_selvalue_t, ptr, i32 }

; Function Attrs: mustprogress uwtable
define void @_Z23_gmx_selelem_free_paramP18gmx_ana_selparam_t(ptr noundef %0) #1 {
  %2 = alloca ptr, align 8
  %3 = alloca i32, align 4
  store ptr %0, ptr %2, align 8
  %4 = load ptr, ptr %2, align 8
  %5 = getelementptr inbounds %struct.gmx_ana_selparam_t, ptr %4, i32 0, i32 1
  %6 = getelementptr inbounds %struct.gmx_ana_selvalue_t, ptr %5, i32 0, i32 2
  %7 = load ptr, ptr %6, align 8
  %8 = icmp ne ptr %7, null
  br i1 %8, label %9, label %38

9:                                                ; preds = %1
  %10 = load ptr, ptr %2, align 8
  %11 = getelementptr inbounds %struct.gmx_ana_selparam_t, ptr %10, i32 0, i32 1
  %12 = getelementptr inbounds %struct.gmx_ana_selvalue_t, ptr %11, i32 0, i32 0
  %13 = load i32, ptr %12, align 8
  %14 = icmp eq i32 %13, 5
  br i1 %14, label %15, label %35

15:                                               ; preds = %9
  store i32 0, ptr %3, align 4
  br label %16

16:                                               ; preds = %31, %15
  %17 = load i32, ptr %3, align 4
  %18 = load ptr, ptr %2, align 8
  %19 = getelementptr inbounds %struct.gmx_ana_selparam_t, ptr %18, i32 0, i32 1
  %20 = getelementptr inbounds %struct.gmx_ana_selvalue_t, ptr %19, i32 0, i32 1
  %21 = load i32, ptr %20, align 4
  %22 = icmp slt i32 %17, %21
  br i1 %22, label %23, label %34

23:                                               ; preds = %16
  %24 = load ptr, ptr %2, align 8
  %25 = getelementptr inbounds %struct.gmx_ana_selparam_t, ptr %24, i32 0, i32 1
  %26 = getelementptr inbounds %struct.gmx_ana_selvalue_t, ptr %25, i32 0, i32 2
  %27 = load ptr, ptr %26, align 8
  %28 = load i32, ptr %3, align 4
  %29 = sext i32 %28 to i64
  %30 = getelementptr inbounds %struct.gmx_ana_index_t, ptr %27, i64 %29
  call void @_Z20gmx_ana_index_deinitP15gmx_ana_index_t(ptr noundef %30)
  br label %31

31:                                               ; preds = %23
  %32 = load i32, ptr %3, align 4
  %33 = add nsw i32 %32, 1
  store i32 %33, ptr %3, align 4
  br label %16, !llvm.loop !8

34:                                               ; preds = %16
  br label %35

35:                                               ; preds = %34, %9
  %36 = load ptr, ptr %2, align 8
  %37 = getelementptr inbounds %struct.gmx_ana_selparam_t, ptr %36, i32 0, i32 1
  call void @_Z18_gmx_selvalue_freeP18gmx_ana_selvalue_t(ptr noundef %37)
  br label %38

38:                                               ; preds = %35, %1
  ret void
}