; Function Attrs: mustprogress uwtable
define void @_Z23_gmx_selelem_free_paramP18gmx_ana_selparam_t(ptr noundef %0) local_unnamed_addr #1 {
  %2 = getelementptr inbounds i8, ptr %0, i64 8
  %3 = getelementptr inbounds i8, ptr %0, i64 16
  %4 = load ptr, ptr %3, align 8
  %.not = icmp eq ptr %4, null
  br i1 %.not, label %16, label %5

5:                                                ; preds = %1
  %6 = load i32, ptr %2, align 8
  %7 = icmp eq i32 %6, 5
  br i1 %7, label %.preheader, label %.loopexit

.preheader:                                       ; preds = %5
  %8 = getelementptr inbounds i8, ptr %0, i64 12
  %9 = load i32, ptr %8, align 4
  %10 = icmp sgt i32 %9, 0
  br i1 %10, label %.lr.ph, label %.loopexit

.lr.ph:                                           ; preds = %.preheader, %.lr.ph
  %indvars.iv = phi i64 [ %indvars.iv.next, %.lr.ph ], [ 0, %.preheader ]
  %11 = load ptr, ptr %3, align 8
  %12 = getelementptr inbounds %struct.gmx_ana_index_t, ptr %11, i64 %indvars.iv
  tail call void @_Z20gmx_ana_index_deinitP15gmx_ana_index_t(ptr noundef %12)
  %indvars.iv.next = add nuw nsw i64 %indvars.iv, 1
  %13 = load i32, ptr %8, align 4
  %14 = sext i32 %13 to i64
  %15 = icmp slt i64 %indvars.iv.next, %14
  br i1 %15, label %.lr.ph, label %.loopexit, !llvm.loop !8

.loopexit:                                        ; preds = %.lr.ph, %.preheader, %5
  tail call void @_Z18_gmx_selvalue_freeP18gmx_ana_selvalue_t(ptr noundef nonnull %2)
  br label %16

16:                                               ; preds = %.loopexit, %1
  ret void
}